target datalayout = "e-m:e-p270:32:32-p271:32:32-p272:64:64-i64:64-i128:128-f80:128-n8:16:32:64-S128"
target triple = "x86_64-pc-linux-gnu"

%struct.ggml_backend = type { ptr, %struct.ggml_backend_i, ptr, ptr }
%struct.ggml_backend_i = type { ptr, ptr, ptr, ptr, ptr, ptr, ptr, ptr, ptr, ptr, ptr, ptr, ptr }

; Function Attrs: mustprogress uwtable
define void @ggml_backend_synchronize(ptr noundef %0) #0 {
  %2 = alloca ptr, align 8
  store ptr %0, ptr %2, align 8, !tbaa !56
  %3 = load ptr, ptr %2, align 8, !tbaa !56
  %4 = getelementptr inbounds nuw %struct.ggml_backend, ptr %3, i32 0, i32 1
  %5 = getelementptr inbounds nuw %struct.ggml_backend_i, ptr %4, i32 0, i32 5
  %6 = load ptr, ptr %5, align 8, !tbaa !76
  %7 = icmp eq ptr %6, null
  br i1 %7, label %8, label %9

8:                                                ; preds = %1
  br label %15

9:                                                ; preds = %1
  %10 = load ptr, ptr %2, align 8, !tbaa !56
  %11 = getelementptr inbounds nuw %struct.ggml_backend, ptr %10, i32 0, i32 1
  %12 = getelementptr inbounds nuw %struct.ggml_backend_i, ptr %11, i32 0, i32 5
  %13 = load ptr, ptr %12, align 8, !tbaa !76
  %14 = load ptr, ptr %2, align 8, !tbaa !56
  call void %13(ptr noundef %14)
  br label %15

15:                                               ; preds = %9, %8
  ret void
}

; Function Attrs: mustprogress uwtable
define i32 @ggml_backend_graph_compute_async(ptr noundef %0, ptr noundef %1) #0 {
  %3 = alloca ptr, align 8
  %4 = alloca ptr, align 8
  store ptr %0, ptr %3, align 8, !tbaa !56
  store ptr %1, ptr %4, align 8, !tbaa !77
  %5 = load ptr, ptr %3, align 8, !tbaa !56
  %6 = getelementptr inbounds nuw %struct.ggml_backend, ptr %5, i32 0, i32 1
  %7 = getelementptr inbounds nuw %struct.ggml_backend_i, ptr %6, i32 0, i32 10
  %8 = load ptr, ptr %7, align 8, !tbaa !84
  %9 = load ptr, ptr %3, align 8, !tbaa !56
  %10 = load ptr, ptr %4, align 8, !tbaa !77
  %11 = call noundef i32 %8(ptr noundef %9, ptr noundef %10)
  ret i32 %11
}

; Function Attrs: mustprogress uwtable
define i32 @ggml_backend_graph_compute(ptr noundef %0, ptr noundef %1) #0 {
  %3 = alloca ptr, align 8
  %4 = alloca ptr, align 8
  %5 = alloca i32, align 4
  store ptr %0, ptr %3, align 8, !tbaa !56
  store ptr %1, ptr %4, align 8, !tbaa !77
  call void @llvm.lifetime.start.p0(i64 4, ptr %5) #15
  %6 = load ptr, ptr %3, align 8, !tbaa !56
  %7 = load ptr, ptr %4, align 8, !tbaa !77
  %8 = call i32 @ggml_backend_graph_compute_async(ptr noundef %6, ptr noundef %7)
  store i32 %8, ptr %5, align 4, !tbaa !82
  %9 = load ptr, ptr %3, align 8, !tbaa !56
  call void @ggml_backend_synchronize(ptr noundef %9)
  %10 = load i32, ptr %5, align 4, !tbaa !82
  call void @llvm.lifetime.end.p0(i64 4, ptr %5) #15
  ret i32 %10
}