; Function Attrs: mustprogress uwtable
define noundef i32 @ggml_backend_graph_compute(ptr noundef %0, ptr noundef %1) local_unnamed_addr #0 {
  %3 = getelementptr inbounds nuw i8, ptr %0, i64 88
  %4 = load ptr, ptr %3, align 8, !tbaa !70
  %5 = tail call noundef i32 %4(ptr noundef %0, ptr noundef %1)
  %6 = getelementptr inbounds nuw i8, ptr %0, i64 48
  %7 = load ptr, ptr %6, align 8, !tbaa !66
  %8 = icmp eq ptr %7, null
  br i1 %8, label %ggml_backend_synchronize.exit, label %9

9:                                                ; preds = %2
  tail call void %7(ptr noundef nonnull %0)
  br label %ggml_backend_synchronize.exit

ggml_backend_synchronize.exit:                    ; preds = %2, %9
  ret i32 %5
}